(lp0
VBusiness & Industrial
p1
aVHome & Garden
p2
aVTravel
p3
aVArts & Entertainment
p4
aVSports
p5
aVFood & Drink
p6
aVPets & Animals
p7
aVHealth
p8
aVShopping
p9
aVFinance
p10
aVAdult
p11
aVBeauty & Fitness
p12
aVNews
p13
aVBooks & Literature
p14
aVOnline Communities
p15
aVLaw & Government
p16
aVSensitive Subjects
p17
aVScience
p18
aVHobbies & Leisure
p19
aVGames
p20
aVJobs & Education
p21
aVAutos & Vehicles
p22
aVComputers & Electronics
p23
aVPeople & Society
p24
aVReference
p25
aVInternet & Telecom
p26
aVReal Estate
p27
aVBusiness & Industrial
p28
aVHome & Garden
p29
aVTravel
p30
aVArts & Entertainment
p31
aVSports
p32
aVFood & Drink
p33
aVPets & Animals
p34
aVHealth
p35
aVShopping
p36
aVFinance
p37
aVAdult
p38
aVBeauty & Fitness
p39
aVNews
p40
aVBooks & Literature
p41
aVOnline Communities
p42
aVLaw & Government
p43
aVSensitive Subjects
p44
aVScience
p45
aVHobbies & Leisure
p46
aVGames
p47
aVJobs & Education
p48
aVAutos & Vehicles
p49
aVComputers & Electronics
p50
aVPeople & Society
p51
aVReference
p52
aVInternet & Telecom
p53
aVReal Estate
p54
aVBusiness & Industrial
p55
aVHome & Garden
p56
aVTravel
p57
aVArts & Entertainment
p58
aVSports
p59
aVFood & Drink
p60
aVPets & Animals
p61
aVHealth
p62
aVShopping
p63
aVFinance
p64
aVAdult
p65
aVBeauty & Fitness
p66
aVNews
p67
aVBooks & Literature
p68
aVOnline Communities
p69
aVLaw & Government
p70
aVSensitive Subjects
p71
aVScience
p72
aVHobbies & Leisure
p73
aVGames
p74
aVJobs & Education
p75
aVAutos & Vehicles
p76
aVComputers & Electronics
p77
aVPeople & Society
p78
aVReference
p79
aVInternet & Telecom
p80
aVReal Estate
p81
aVBusiness & Industrial
p82
aVHome & Garden
p83
aVTravel
p84
aVArts & Entertainment
p85
aVSports
p86
aVFood & Drink
p87
aVPets & Animals
p88
aVHealth
p89
aVShopping
p90
aVFinance
p91
aVAdult
p92
aVBeauty & Fitness
p93
aVNews
p94
aVBooks & Literature
p95
aVOnline Communities
p96
aVLaw & Government
p97
aVSensitive Subjects
p98
aVScience
p99
aVHobbies & Leisure
p100
aVGames
p101
aVJobs & Education
p102
aVAutos & Vehicles
p103
aVComputers & Electronics
p104
aVPeople & Society
p105
aVReference
p106
aVInternet & Telecom
p107
aVReal Estate
p108
aVBusiness & Industrial
p109
aVHome & Garden
p110
aVTravel
p111
aVArts & Entertainment
p112
aVSports
p113
aVFood & Drink
p114
aVPets & Animals
p115
aVHealth
p116
aVShopping
p117
aVFinance
p118
aVAdult
p119
aVBeauty & Fitness
p120
aVNews
p121
aVBooks & Literature
p122
aVOnline Communities
p123
aVLaw & Government
p124
aVSensitive Subjects
p125
aVScience
p126
aVHobbies & Leisure
p127
aVGames
p128
aVJobs & Education
p129
aVAutos & Vehicles
p130
aVComputers & Electronics
p131
aVPeople & Society
p132
aVReference
p133
aVInternet & Telecom
p134
aVReal Estate
p135
aVBusiness & Industrial
p136
aVHome & Garden
p137
aVTravel
p138
aVArts & Entertainment
p139
aVSports
p140
aVFood & Drink
p141
aVPets & Animals
p142
aVHealth
p143
aVShopping
p144
aVFinance
p145
aVAdult
p146
aVBeauty & Fitness
p147
aVNews
p148
aVBooks & Literature
p149
aVOnline Communities
p150
aVLaw & Government
p151
aVSensitive Subjects
p152
aVScience
p153
aVHobbies & Leisure
p154
aVGames
p155
aVJobs & Education
p156
aVAutos & Vehicles
p157
aVComputers & Electronics
p158
aVPeople & Society
p159
aVReference
p160
aVInternet & Telecom
p161
aVReal Estate
p162
aVBusiness & Industrial
p163
aVHome & Garden
p164
aVTravel
p165
aVArts & Entertainment
p166
aVSports
p167
aVFood & Drink
p168
aVPets & Animals
p169
aVHealth
p170
aVShopping
p171
aVFinance
p172
aVAdult
p173
aVBeauty & Fitness
p174
aVNews
p175
aVBooks & Literature
p176
aVOnline Communities
p177
aVLaw & Government
p178
aVSensitive Subjects
p179
aVScience
p180
aVHobbies & Leisure
p181
aVGames
p182
aVJobs & Education
p183
aVAutos & Vehicles
p184
aVComputers & Electronics
p185
aVPeople & Society
p186
aVReference
p187
aVInternet & Telecom
p188
aVReal Estate
p189
aVBusiness & Industrial
p190
aVHome & Garden
p191
aVTravel
p192
aVArts & Entertainment
p193
aVSports
p194
aVFood & Drink
p195
aVPets & Animals
p196
aVHealth
p197
aVShopping
p198
aVFinance
p199
aVAdult
p200
aVBeauty & Fitness
p201
aVNews
p202
aVBooks & Literature
p203
aVOnline Communities
p204
aVLaw & Government
p205
aVSensitive Subjects
p206
aVScience
p207
aVHobbies & Leisure
p208
aVGames
p209
aVJobs & Education
p210
aVAutos & Vehicles
p211
aVComputers & Electronics
p212
aVPeople & Society
p213
aVReference
p214
aVInternet & Telecom
p215
aVReal Estate
p216
a.