(dp0
VBusiness & Industrial
p1
I9129
sVHome & Garden
p2
I3070
sVTravel
p3
I9273
sVArts & Entertainment
p4
I50783
sVSports
p5
I8410
sVFood & Drink
p6
I10427
sVPets & Animals
p7
I728
sVHealth
p8
I11194
sVShopping
p9
I10811
sVFinance
p10
I4991
sVAdult
p11
I1037
sVBeauty & Fitness
p12
I6065
sVNews
p13
I7099
sVBooks & Literature
p14
I5427
sVOnline Communities
p15
I3657
sVLaw & Government
p16
I5385
sVSensitive Subjects
p17
I2960
sVScience
p18
I15850
sVHobbies & Leisure
p19
I5828
sVGames
p20
I9124
sVJobs & Education
p21
I21051
sVAutos & Vehicles
p22
I2752
sVComputers & Electronics
p23
I16312
sVPeople & Society
p24
I10272
sVReference
p25
I22270
sVInternet & Telecom
p26
I9124
sVReal Estate
p27
I795
s.