(dp0
VBusiness & Industrial
p1
I7142
sVHome & Garden
p2
I2333
sVTravel
p3
I5688
sVArts & Entertainment
p4
I38692
sVSports
p5
I6747
sVFood & Drink
p6
I6729
sVPets & Animals
p7
I520
sVHealth
p8
I7576
sVShopping
p9
I8306
sVFinance
p10
I4334
sVAdult
p11
I1494
sVBeauty & Fitness
p12
I3054
sVNews
p13
I5854
sVBooks & Literature
p14
I5462
sVOnline Communities
p15
I3088
sVLaw & Government
p16
I4427
sVSensitive Subjects
p17
I1995
sVScience
p18
I12146
sVHobbies & Leisure
p19
I4684
sVGames
p20
I8751
sVJobs & Education
p21
I17775
sVAutos & Vehicles
p22
I3316
sVComputers & Electronics
p23
I10248
sVPeople & Society
p24
I7260
sVReference
p25
I22741
sVInternet & Telecom
p26
I5338
sVReal Estate
p27
I596
s.