(dp0
VBusiness & Industrial
p1
I7980
sVHome & Garden
p2
I2574
sVTravel
p3
I6860
sVArts & Entertainment
p4
I52728
sVSports
p5
I6077
sVFood & Drink
p6
I8748
sVPets & Animals
p7
I785
sVHealth
p8
I7788
sVShopping
p9
I8930
sVFinance
p10
I3325
sVAdult
p11
I1513
sVBeauty & Fitness
p12
I4504
sVNews
p13
I5641
sVBooks & Literature
p14
I4262
sVOnline Communities
p15
I3898
sVLaw & Government
p16
I4263
sVSensitive Subjects
p17
I2182
sVScience
p18
I15912
sVHobbies & Leisure
p19
I5069
sVGames
p20
I7620
sVJobs & Education
p21
I21126
sVAutos & Vehicles
p22
I2300
sVComputers & Electronics
p23
I15212
sVPeople & Society
p24
I8961
sVReference
p25
I22428
sVInternet & Telecom
p26
I7142
sVReal Estate
p27
I478
s.