(dp0
VBusiness & Industrial
p1
I5354
sVHome & Garden
p2
I1862
sVTravel
p3
I4198
sVArts & Entertainment
p4
I39721
sVSports
p5
I4034
sVFood & Drink
p6
I5669
sVPets & Animals
p7
I582
sVHealth
p8
I4949
sVShopping
p9
I5053
sVFinance
p10
I2074
sVAdult
p11
I1242
sVBeauty & Fitness
p12
I2167
sVNews
p13
I3949
sVBooks & Literature
p14
I4207
sVOnline Communities
p15
I3288
sVLaw & Government
p16
I3028
sVSensitive Subjects
p17
I1646
sVScience
p18
I12373
sVHobbies & Leisure
p19
I3800
sVGames
p20
I5926
sVJobs & Education
p21
I16536
sVAutos & Vehicles
p22
I1587
sVComputers & Electronics
p23
I10974
sVPeople & Society
p24
I7055
sVReference
p25
I19907
sVInternet & Telecom
p26
I4850
sVReal Estate
p27
I249
s.